libcutl-1.10.so:_ZN4cutl2fs10basic_pathIcE7currentERKS2_
libcutl-1.10.so:_ZN4cutl2fs10basic_pathIcE7currentEv
libcutl-1.10.so:_ZN4cutl2fs10basic_pathIwE7currentERKS2_
libcutl-1.10.so:_ZN4cutl2fs10basic_pathIwE7currentEv
libcutl-1.10.so:_ZN4cutl2fs11auto_removeD1Ev
libcutl-1.10.so:_ZN4cutl2fs11auto_removeD2Ev
libcutl-1.10.so:_ZN4cutl2fs12auto_removesD1Ev
libcutl-1.10.so:_ZN4cutl2fs12auto_removesD2Ev
libcutl-1.10.so:_ZN4cutl2re11basic_regexIcE4initEPKNSt7__cxx1112basic_stringIcSt11char_traitsIcESaIcEEEb
libcutl-1.10.so:_ZN4cutl2re11basic_regexIcEC1ERKS2_
libcutl-1.10.so:_ZN4cutl2re11basic_regexIcEC2ERKS2_
libcutl-1.10.so:_ZN4cutl2re11basic_regexIcED1Ev
libcutl-1.10.so:_ZN4cutl2re11basic_regexIcED2Ev
libcutl-1.10.so:_ZN4cutl2re11basic_regexIcEaSERKS2_
libcutl-1.10.so:_ZN4cutl2re11basic_regexIwE4initEPKNSt7__cxx1112basic_stringIwSt11char_traitsIwESaIwEEEb
libcutl-1.10.so:_ZN4cutl2re11basic_regexIwEC1ERKS2_
libcutl-1.10.so:_ZN4cutl2re11basic_regexIwEC2ERKS2_
libcutl-1.10.so:_ZN4cutl2re11basic_regexIwED1Ev
libcutl-1.10.so:_ZN4cutl2re11basic_regexIwED2Ev
libcutl-1.10.so:_ZN4cutl2re11basic_regexIwEaSERKS2_
libcutl-1.10.so:_ZN4cutl2re11format_baseD0Ev
libcutl-1.10.so:_ZN4cutl2re11format_baseD1Ev
libcutl-1.10.so:_ZN4cutl2re11format_baseD2Ev
libcutl-1.10.so:_ZN4cutl3xml10serializer10charactersERKNSt7__cxx1112basic_stringIcSt11char_traitsIcESaIcEEE
libcutl-1.10.so:_ZN4cutl3xml10serializer11end_elementEv
libcutl-1.10.so:_ZN4cutl3xml10serializer12handle_errorE10genxStatus
libcutl-1.10.so:_ZN4cutl3xml10serializer13end_attributeEv
libcutl-1.10.so:_ZN4cutl3xml10serializer13start_elementERKNSt7__cxx1112basic_stringIcSt11char_traitsIcESaIcEEES9_
libcutl-1.10.so:_ZN4cutl3xml10serializer14namespace_declERKNSt7__cxx1112basic_stringIcSt11char_traitsIcESaIcEEES9_
libcutl-1.10.so:_ZN4cutl3xml10serializer15start_attributeERKNSt7__cxx1112basic_stringIcSt11char_traitsIcESaIcEEES9_
libcutl-1.10.so:_ZN4cutl3xml10serializer23lookup_namespace_prefixERKNSt7__cxx1112basic_stringIcSt11char_traitsIcESaIcEEERS7_
libcutl-1.10.so:_ZN4cutl3xml10serializer8xml_declERKNSt7__cxx1112basic_stringIcSt11char_traitsIcESaIcEEES9_S9_
libcutl-1.10.so:_ZN4cutl3xml10serializer9attributeERKNSt7__cxx1112basic_stringIcSt11char_traitsIcESaIcEEES9_S9_
libcutl-1.10.so:_ZN4cutl3xml10serializerC1ERSoRKNSt7__cxx1112basic_stringIcSt11char_traitsIcESaIcEEEt
libcutl-1.10.so:_ZN4cutl3xml10serializerC2ERSoRKNSt7__cxx1112basic_stringIcSt11char_traitsIcESaIcEEEt
libcutl-1.10.so:_ZN4cutl3xml10serializerD1Ev
libcutl-1.10.so:_ZN4cutl3xml10serializerD2Ev
libcutl-1.10.so:_ZN4cutl3xml13serialization4initEv
libcutl-1.10.so:_ZN4cutl3xml13serializationC1ERKNS0_10serializerERKNSt7__cxx1112basic_stringIcSt11char_traitsIcESaIcEEE
libcutl-1.10.so:_ZN4cutl3xml13serializationC1ERKNSt7__cxx1112basic_stringIcSt11char_traitsIcESaIcEEES9_
libcutl-1.10.so:_ZN4cutl3xml13serializationC2ERKNS0_10serializerERKNSt7__cxx1112basic_stringIcSt11char_traitsIcESaIcEEE
libcutl-1.10.so:_ZN4cutl3xml13serializationC2ERKNSt7__cxx1112basic_stringIcSt11char_traitsIcESaIcEEES9_
libcutl-1.10.so:_ZN4cutl3xml13serializationD0Ev
libcutl-1.10.so:_ZN4cutl3xml13serializationD1Ev
libcutl-1.10.so:_ZN4cutl3xml13serializationD2Ev
libcutl-1.10.so:_ZN4cutl3xml20default_value_traitsIbE5parseENSt7__cxx1112basic_stringIcSt11char_traitsIcESaIcEEERKNS0_6parserE
libcutl-1.10.so:_ZN4cutl3xml6parser11characters_EPvPKci
libcutl-1.10.so:_ZN4cutl3xml6parser11next_expectENS1_10event_typeE
libcutl-1.10.so:_ZN4cutl3xml6parser11next_expectENS1_10event_typeERKNSt7__cxx1112basic_stringIcSt11char_traitsIcESaIcEEESA_
libcutl-1.10.so:_ZN4cutl3xml6parser11pop_elementEv
libcutl-1.10.so:_ZN4cutl3xml6parser12end_element_EPvPKc
libcutl-1.10.so:_ZN4cutl3xml6parser12handle_errorEv
libcutl-1.10.so:_ZN4cutl3xml6parser14start_element_EPvPKcPS4_
libcutl-1.10.so:_ZN4cutl3xml6parser19end_namespace_decl_EPvPKc
libcutl-1.10.so:_ZN4cutl3xml6parser21start_namespace_decl_EPvPKcS4_
libcutl-1.10.so:_ZN4cutl3xml6parser5next_Eb
libcutl-1.10.so:_ZN4cutl3xml6parser9next_bodyEv
libcutl-1.10.so:_ZN4cutl3xml6parserC1ERSiRKNSt7__cxx1112basic_stringIcSt11char_traitsIcESaIcEEEt
libcutl-1.10.so:_ZN4cutl3xml6parserC2ERSiRKNSt7__cxx1112basic_stringIcSt11char_traitsIcESaIcEEEt
libcutl-1.10.so:_ZN4cutl3xml6parserD1Ev
libcutl-1.10.so:_ZN4cutl3xml6parserD2Ev
libcutl-1.10.so:_ZN4cutl3xml7parsing4initEv
libcutl-1.10.so:_ZN4cutl3xml7parsingC1ERKNS0_6parserERKNSt7__cxx1112basic_stringIcSt11char_traitsIcESaIcEEE
libcutl-1.10.so:_ZN4cutl3xml7parsingC1ERKNSt7__cxx1112basic_stringIcSt11char_traitsIcESaIcEEEyyS9_
libcutl-1.10.so:_ZN4cutl3xml7parsingC2ERKNS0_6parserERKNSt7__cxx1112basic_stringIcSt11char_traitsIcESaIcEEE
libcutl-1.10.so:_ZN4cutl3xml7parsingC2ERKNSt7__cxx1112basic_stringIcSt11char_traitsIcESaIcEEEyyS9_
libcutl-1.10.so:_ZN4cutl3xml7parsingD0Ev
libcutl-1.10.so:_ZN4cutl3xml7parsingD1Ev
libcutl-1.10.so:_ZN4cutl3xml7parsingD2Ev
libcutl-1.10.so:_ZN4cutl3xmllsERSoNS0_6parser10event_typeE
libcutl-1.10.so:_ZN4cutl3xmllsERSoRKNS0_5qnameE
libcutl-1.10.so:_ZN4cutl8compiler12cxx_indenterIcE7keywordENS2_12keyword_typeE
libcutl-1.10.so:_ZN4cutl8compiler12cxx_indenterIwE7keywordENS2_12keyword_typeE
libcutl-1.10.so:_ZN4cutl8compiler6insertERKNS0_9type_infoE
libcutl-1.10.so:_ZN4cutl8compiler6lookupERKNS0_7type_idE
libcutl-1.10.so:_ZN4cutl8compiler7context3setERKNSt7__cxx1112basic_stringIcSt11char_traitsIcESaIcEEERKNS_9container3anyE
libcutl-1.10.so:_ZN4cutl8compiler7context6removeERKNSt7__cxx1112basic_stringIcSt11char_traitsIcESaIcEEE
libcutl-1.10.so:_ZNK4cutl10not_shared4whatEv
libcutl-1.10.so:_ZNK4cutl2fs17invalid_path_base4whatEv
libcutl-1.10.so:_ZNK4cutl2fs5error4whatEv
libcutl-1.10.so:_ZNK4cutl2re11basic_regexIcE5matchERKNSt7__cxx1112basic_stringIcSt11char_traitsIcESaIcEEE
libcutl-1.10.so:_ZNK4cutl2re11basic_regexIcE6searchERKNSt7__cxx1112basic_stringIcSt11char_traitsIcESaIcEEE
libcutl-1.10.so:_ZNK4cutl2re11basic_regexIcE7replaceERKNSt7__cxx1112basic_stringIcSt11char_traitsIcESaIcEEESA_b
libcutl-1.10.so:_ZNK4cutl2re11basic_regexIwE5matchERKNSt7__cxx1112basic_stringIwSt11char_traitsIwESaIwEEE
libcutl-1.10.so:_ZNK4cutl2re11basic_regexIwE6searchERKNSt7__cxx1112basic_stringIwSt11char_traitsIwESaIwEEE
libcutl-1.10.so:_ZNK4cutl2re11basic_regexIwE7replaceERKNSt7__cxx1112basic_stringIwSt11char_traitsIwESaIwEEESA_b
libcutl-1.10.so:_ZNK4cutl2re11format_base4whatEv
libcutl-1.10.so:_ZNK4cutl3xml13serialization4whatEv
libcutl-1.10.so:_ZNK4cutl3xml5qname6stringB5cxx11Ev
libcutl-1.10.so:_ZNK4cutl3xml6parser11get_elementEv
libcutl-1.10.so:_ZNK4cutl3xml6parser17attribute_presentERKNS0_5qnameE
libcutl-1.10.so:_ZNK4cutl3xml6parser9attributeB5cxx11ERKNS0_5qnameE
libcutl-1.10.so:_ZNK4cutl3xml6parser9attributeERKNS0_5qnameERKNSt7__cxx1112basic_stringIcSt11char_traitsIcESaIcEEE
libcutl-1.10.so:_ZNK4cutl3xml7parsing4whatEv
libcutl-1.10.so:_ZNK4cutl8compiler7context9type_infoERKNSt7__cxx1112basic_stringIcSt11char_traitsIcESaIcEEE
libcutl-1.10.so:_ZNK4cutl9exception4whatEv
libcutl-1.10.so:_ZdlPvN4cutl5shareE
libcutl-1.10.so:_ZnwmN4cutl5shareE
libcutl-1.10.so:genxAddAttribute
libcutl-1.10.so:genxAddAttributeLiteral
libcutl-1.10.so:genxAddBoundedText
libcutl-1.10.so:genxAddCharacter
libcutl-1.10.so:genxAddCountedText
libcutl-1.10.so:genxAddNamespace
libcutl-1.10.so:genxAddNamespaceLiteral
libcutl-1.10.so:genxAddText
libcutl-1.10.so:genxCharClass
libcutl-1.10.so:genxCheckText
libcutl-1.10.so:genxComment
libcutl-1.10.so:genxDeclareAttribute
libcutl-1.10.so:genxDeclareElement
libcutl-1.10.so:genxDeclareNamespace
libcutl-1.10.so:genxDispose
libcutl-1.10.so:genxEndAttribute
libcutl-1.10.so:genxEndDocument
libcutl-1.10.so:genxEndElement
libcutl-1.10.so:genxGetAlloc
libcutl-1.10.so:genxGetCanonical
libcutl-1.10.so:genxGetDealloc
libcutl-1.10.so:genxGetErrorMessage
libcutl-1.10.so:genxGetNamespacePrefix
libcutl-1.10.so:genxGetPrettyPrint
libcutl-1.10.so:genxGetUserData
libcutl-1.10.so:genxGetVersion
libcutl-1.10.so:genxLastErrorMessage
libcutl-1.10.so:genxNew
libcutl-1.10.so:genxNextUnicodeChar
libcutl-1.10.so:genxPI
libcutl-1.10.so:genxReset
libcutl-1.10.so:genxScrubText
libcutl-1.10.so:genxSetAlloc
libcutl-1.10.so:genxSetCanonical
libcutl-1.10.so:genxSetCharProps
libcutl-1.10.so:genxSetDealloc
libcutl-1.10.so:genxSetPrettyPrint
libcutl-1.10.so:genxSetUserData
libcutl-1.10.so:genxStartAttribute
libcutl-1.10.so:genxStartAttributeLiteral
libcutl-1.10.so:genxStartDocSender
libcutl-1.10.so:genxStartElement
libcutl-1.10.so:genxStartElementLiteral
libcutl-1.10.so:genxUnsetDefaultNamespace
libcutl-1.10.so:genxXmlDeclaration
libcutl-1.10.so:genx_flush
libcutl-1.10.so:genx_write
libcutl-1.10.so:genx_write_bound
